target datalayout = "e-m:e-p270:32:32-p271:32:32-p272:64:64-i64:64-i128:128-f80:128-n8:16:32:64-S128"
target triple = "x86_64-pc-linux-gnu"

%"class.gmx::AnalysisDataHandle" = type { ptr }
%"class.gmx::internal::AnalysisDataHandleImpl" = type { ptr, ptr }
%"class.gmx::AnalysisDataStorageFrame" = type <{ ptr, %"class.std::vector.44", i32, i32, i32, i8, [3 x i8] }>
%"class.std::vector.44" = type { %"struct.std::_Vector_base.45" }
%"struct.std::_Vector_base.45" = type { %"struct.std::_Vector_base<gmx::AnalysisDataValue, std::allocator<gmx::AnalysisDataValue>>::_Vector_impl" }
%"struct.std::_Vector_base<gmx::AnalysisDataValue, std::allocator<gmx::AnalysisDataValue>>::_Vector_impl" = type { %"struct.std::_Vector_base<gmx::AnalysisDataValue, std::allocator<gmx::AnalysisDataValue>>::_Vector_impl_data" }
%"struct.std::_Vector_base<gmx::AnalysisDataValue, std::allocator<gmx::AnalysisDataValue>>::_Vector_impl_data" = type { ptr, ptr, ptr }
%"class.gmx::AnalysisDataValue" = type { float, float, %"class.gmx::FlagsTemplate" }
%"class.gmx::FlagsTemplate" = type { i64 }
%class.anon.57 = type { i8 }
%class.anon.59 = type { i8 }

@.str.2 = private unnamed_addr constant [135 x i8] c"generated/home/dtcxzyw/WorkSpace/Projects/compilers/llvm-opt-benchmark/bench/gromacs/gromacs/src/gromacs/analysisdata/analysisdata.cpp\00", align 1
@.str.9 = private unnamed_addr constant [17 x i8] c"impl_ != nullptr\00", align 1
@.str.10 = private unnamed_addr constant [25 x i8] c"Invalid data handle used\00", align 1
@.str.13 = private unnamed_addr constant [32 x i8] c"impl_->currentFrame_ != nullptr\00", align 1
@.str.15 = private unnamed_addr constant [47 x i8] c"setPoint() called without calling startFrame()\00", align 1
@"__PRETTY_FUNCTION__._ZZN3gmx18AnalysisDataHandle8setPointEiffbENK3$_0clEv" = private unnamed_addr constant [101 x i8] c"auto gmx::AnalysisDataHandle::setPoint(int, real, real, bool)::(anonymous class)::operator()() const\00", align 1

; Function Attrs: mustprogress nounwind uwtable
define linkonce_odr void @_ZN3gmx13FlagsTemplateINS_17AnalysisDataValue4FlagEE5clearES2_(ptr noundef nonnull align 8 dereferenceable(8) %0, i64 noundef %1) #0 comdat align 2 {
  %3 = alloca ptr, align 8
  %4 = alloca i64, align 8
  store ptr %0, ptr %3, align 8, !tbaa !137
  store i64 %1, ptr %4, align 8, !tbaa !139
  %5 = load ptr, ptr %3, align 8
  %6 = load i64, ptr %4, align 8, !tbaa !139
  %7 = xor i64 %6, -1
  %8 = getelementptr inbounds nuw %"class.gmx::FlagsTemplate", ptr %5, i32 0, i32 0
  %9 = load i64, ptr %8, align 8, !tbaa !141
  %10 = and i64 %9, %7
  store i64 %10, ptr %8, align 8, !tbaa !141
  ret void
}

; Function Attrs: mustprogress uwtable
define linkonce_odr void @_ZN3gmx13FlagsTemplateINS_17AnalysisDataValue4FlagEE3setES2_b(ptr noundef nonnull align 8 dereferenceable(8) %0, i64 noundef %1, i1 noundef zeroext %2) #1 comdat align 2 {
  %4 = alloca ptr, align 8
  %5 = alloca i64, align 8
  %6 = alloca i8, align 1
  store ptr %0, ptr %4, align 8, !tbaa !137
  store i64 %1, ptr %5, align 8, !tbaa !139
  %7 = zext i1 %2 to i8
  store i8 %7, ptr %6, align 1, !tbaa !85
  %8 = load ptr, ptr %4, align 8
  %9 = load i8, ptr %6, align 1, !tbaa !85, !range !87, !noundef !88
  %10 = trunc i8 %9 to i1
  br i1 %10, label %11, label %13

11:                                               ; preds = %3
  %12 = load i64, ptr %5, align 8, !tbaa !139
  call void @_ZN3gmx13FlagsTemplateINS_17AnalysisDataValue4FlagEE3setES2_(ptr noundef nonnull align 8 dereferenceable(8) %8, i64 noundef %12)
  br label %15

13:                                               ; preds = %3
  %14 = load i64, ptr %5, align 8, !tbaa !139
  call void @_ZN3gmx13FlagsTemplateINS_17AnalysisDataValue4FlagEE5clearES2_(ptr noundef nonnull align 8 dereferenceable(8) %8, i64 noundef %14)
  br label %15

15:                                               ; preds = %13, %11
  ret void
}

; Function Attrs: mustprogress nounwind uwtable
define linkonce_odr void @_ZN3gmx13FlagsTemplateINS_17AnalysisDataValue4FlagEE3setES2_(ptr noundef nonnull align 8 dereferenceable(8) %0, i64 noundef %1) #0 comdat align 2 {
  %3 = alloca ptr, align 8
  %4 = alloca i64, align 8
  store ptr %0, ptr %3, align 8, !tbaa !137
  store i64 %1, ptr %4, align 8, !tbaa !139
  %5 = load ptr, ptr %3, align 8
  %6 = load i64, ptr %4, align 8, !tbaa !139
  %7 = getelementptr inbounds nuw %"class.gmx::FlagsTemplate", ptr %5, i32 0, i32 0
  %8 = load i64, ptr %7, align 8, !tbaa !141
  %9 = or i64 %8, %6
  store i64 %9, ptr %7, align 8, !tbaa !141
  ret void
}

; Function Attrs: mustprogress uwtable
define linkonce_odr void @_ZN3gmx17AnalysisDataValue8setValueEffb(ptr noundef nonnull align 8 dereferenceable(16) %0, float noundef %1, float noundef %2, i1 noundef zeroext %3) #1 comdat align 2 {
  %5 = alloca ptr, align 8
  %6 = alloca float, align 4
  %7 = alloca float, align 4
  %8 = alloca i8, align 1
  store ptr %0, ptr %5, align 8, !tbaa !133
  store float %1, ptr %6, align 4, !tbaa !117
  store float %2, ptr %7, align 4, !tbaa !117
  %9 = zext i1 %3 to i8
  store i8 %9, ptr %8, align 1, !tbaa !85
  %10 = load ptr, ptr %5, align 8
  %11 = load float, ptr %6, align 4, !tbaa !117
  %12 = getelementptr inbounds nuw %"class.gmx::AnalysisDataValue", ptr %10, i32 0, i32 0
  store float %11, ptr %12, align 8, !tbaa !134
  %13 = load float, ptr %7, align 4, !tbaa !117
  %14 = getelementptr inbounds nuw %"class.gmx::AnalysisDataValue", ptr %10, i32 0, i32 1
  store float %13, ptr %14, align 4, !tbaa !142
  %15 = getelementptr inbounds nuw %"class.gmx::AnalysisDataValue", ptr %10, i32 0, i32 2
  call void @_ZN3gmx13FlagsTemplateINS_17AnalysisDataValue4FlagEE3setES2_(ptr noundef nonnull align 8 dereferenceable(8) %15, i64 noundef 1)
  %16 = getelementptr inbounds nuw %"class.gmx::AnalysisDataValue", ptr %10, i32 0, i32 2
  call void @_ZN3gmx13FlagsTemplateINS_17AnalysisDataValue4FlagEE3setES2_(ptr noundef nonnull align 8 dereferenceable(8) %16, i64 noundef 2)
  %17 = getelementptr inbounds nuw %"class.gmx::AnalysisDataValue", ptr %10, i32 0, i32 2
  %18 = load i8, ptr %8, align 1, !tbaa !85, !range !87, !noundef !88
  %19 = trunc i8 %18 to i1
  call void @_ZN3gmx13FlagsTemplateINS_17AnalysisDataValue4FlagEE3setES2_b(ptr noundef nonnull align 8 dereferenceable(8) %17, i64 noundef 4, i1 noundef zeroext %19)
  ret void
}

; Function Attrs: mustprogress nounwind uwtable
define linkonce_odr noundef nonnull align 8 dereferenceable(16) ptr @_ZNSt6vectorIN3gmx17AnalysisDataValueESaIS1_EEixEm(ptr noundef nonnull align 8 dereferenceable(24) %0, i64 noundef %1) #0 comdat align 2 {
  %3 = alloca ptr, align 8
  %4 = alloca i64, align 8
  store ptr %0, ptr %3, align 8, !tbaa !130
  store i64 %1, ptr %4, align 8, !tbaa !76
  %5 = load ptr, ptr %3, align 8
  %6 = getelementptr inbounds nuw %"struct.std::_Vector_base.45", ptr %5, i32 0, i32 0
  %7 = getelementptr inbounds nuw %"struct.std::_Vector_base<gmx::AnalysisDataValue, std::allocator<gmx::AnalysisDataValue>>::_Vector_impl_data", ptr %6, i32 0, i32 0
  %8 = load ptr, ptr %7, align 8, !tbaa !132
  %9 = load i64, ptr %4, align 8, !tbaa !76
  %10 = getelementptr inbounds nuw %"class.gmx::AnalysisDataValue", ptr %8, i64 %9
  ret ptr %10
}

; Function Attrs: mustprogress uwtable
define linkonce_odr void @_ZN3gmx24AnalysisDataStorageFrame8setValueEiffb(ptr noundef nonnull align 8 dereferenceable(45) %0, i32 noundef %1, float noundef %2, float noundef %3, i1 noundef zeroext %4) #1 comdat align 2 {
  %6 = alloca ptr, align 8
  %7 = alloca i32, align 4
  %8 = alloca float, align 4
  %9 = alloca float, align 4
  %10 = alloca i8, align 1
  store ptr %0, ptr %6, align 8, !tbaa !120
  store i32 %1, ptr %7, align 4, !tbaa !9
  store float %2, ptr %8, align 4, !tbaa !117
  store float %3, ptr %9, align 4, !tbaa !117
  %11 = zext i1 %4 to i8
  store i8 %11, ptr %10, align 1, !tbaa !85
  %12 = load ptr, ptr %6, align 8
  %13 = getelementptr inbounds nuw %"class.gmx::AnalysisDataStorageFrame", ptr %12, i32 0, i32 1
  %14 = getelementptr inbounds nuw %"class.gmx::AnalysisDataStorageFrame", ptr %12, i32 0, i32 3
  %15 = load i32, ptr %14, align 4, !tbaa !121
  %16 = load i32, ptr %7, align 4, !tbaa !9
  %17 = add nsw i32 %15, %16
  %18 = sext i32 %17 to i64
  %19 = call noundef nonnull align 8 dereferenceable(16) ptr @_ZNSt6vectorIN3gmx17AnalysisDataValueESaIS1_EEixEm(ptr noundef nonnull align 8 dereferenceable(24) %13, i64 noundef %18) #13
  %20 = load float, ptr %8, align 4, !tbaa !117
  %21 = load float, ptr %9, align 4, !tbaa !117
  %22 = load i8, ptr %10, align 1, !tbaa !85, !range !87, !noundef !88
  %23 = trunc i8 %22 to i1
  call void @_ZN3gmx17AnalysisDataValue8setValueEffb(ptr noundef nonnull align 8 dereferenceable(16) %19, float noundef %20, float noundef %21, i1 noundef zeroext %23)
  %24 = getelementptr inbounds nuw %"class.gmx::AnalysisDataStorageFrame", ptr %12, i32 0, i32 5
  store i8 1, ptr %24, align 4, !tbaa !129
  ret void
}

; Function Attrs: inlinehint mustprogress uwtable
define internal void @"_ZZN3gmx18AnalysisDataHandle8setPointEiffbENK3$_1clEv"(ptr noundef nonnull align 1 dereferenceable(1) %0) #4 align 2 {
  %2 = alloca ptr, align 8
  store ptr %0, ptr %2, align 8, !tbaa !78
  call void @_ZN3gmx8internal13assertHandlerEPKcS2_S2_S2_i(ptr noundef @.str.13, ptr noundef @.str.15, ptr noundef @"__PRETTY_FUNCTION__._ZZN3gmx18AnalysisDataHandle8setPointEiffbENK3$_0clEv", ptr noundef @.str.2, i32 noundef 249) #17
  unreachable
}

; Function Attrs: inlinehint mustprogress uwtable
define internal void @"_ZZN3gmx18AnalysisDataHandle8setPointEiffbENK3$_0clEv"(ptr noundef nonnull align 1 dereferenceable(1) %0) #4 align 2 {
  %2 = alloca ptr, align 8
  store ptr %0, ptr %2, align 8, !tbaa !78
  call void @_ZN3gmx8internal13assertHandlerEPKcS2_S2_S2_i(ptr noundef @.str.9, ptr noundef @.str.10, ptr noundef @"__PRETTY_FUNCTION__._ZZN3gmx18AnalysisDataHandle8setPointEiffbENK3$_0clEv", ptr noundef @.str.2, i32 noundef 247) #17
  unreachable
}

; Function Attrs: mustprogress uwtable
define void @_ZN3gmx18AnalysisDataHandle8setPointEiffb(ptr noundef nonnull align 8 dereferenceable(8) %0, i32 noundef %1, float noundef %2, float noundef %3, i1 noundef zeroext %4) #1 align 2 {
  %6 = alloca ptr, align 8
  %7 = alloca i32, align 4
  %8 = alloca float, align 4
  %9 = alloca float, align 4
  %10 = alloca i8, align 1
  %11 = alloca %class.anon.57, align 1
  %12 = alloca %class.anon.59, align 1
  store ptr %0, ptr %6, align 8, !tbaa !115
  store i32 %1, ptr %7, align 4, !tbaa !9
  store float %2, ptr %8, align 4, !tbaa !117
  store float %3, ptr %9, align 4, !tbaa !117
  %13 = zext i1 %4 to i8
  store i8 %13, ptr %10, align 1, !tbaa !85
  %14 = load ptr, ptr %6, align 8
  %15 = getelementptr inbounds nuw %"class.gmx::AnalysisDataHandle", ptr %14, i32 0, i32 0
  %16 = load ptr, ptr %15, align 8, !tbaa !111
  %17 = icmp ne ptr %16, null
  call void @llvm.lifetime.start.p0(i64 1, ptr %11) #13
  br i1 %17, label %18, label %19

18:                                               ; preds = %5
  br label %20

19:                                               ; preds = %5
  call void @"_ZZN3gmx18AnalysisDataHandle8setPointEiffbENK3$_0clEv"(ptr noundef nonnull align 1 dereferenceable(1) %11)
  br label %20

20:                                               ; preds = %19, %18
  call void @llvm.lifetime.end.p0(i64 1, ptr %11) #13
  %21 = getelementptr inbounds nuw %"class.gmx::AnalysisDataHandle", ptr %14, i32 0, i32 0
  %22 = load ptr, ptr %21, align 8, !tbaa !111
  %23 = getelementptr inbounds nuw %"class.gmx::internal::AnalysisDataHandleImpl", ptr %22, i32 0, i32 1
  %24 = load ptr, ptr %23, align 8, !tbaa !93
  %25 = icmp ne ptr %24, null
  call void @llvm.lifetime.start.p0(i64 1, ptr %12) #13
  br i1 %25, label %26, label %27

26:                                               ; preds = %20
  br label %28

27:                                               ; preds = %20
  call void @"_ZZN3gmx18AnalysisDataHandle8setPointEiffbENK3$_1clEv"(ptr noundef nonnull align 1 dereferenceable(1) %12)
  br label %28

28:                                               ; preds = %27, %26
  call void @llvm.lifetime.end.p0(i64 1, ptr %12) #13
  %29 = getelementptr inbounds nuw %"class.gmx::AnalysisDataHandle", ptr %14, i32 0, i32 0
  %30 = load ptr, ptr %29, align 8, !tbaa !111
  %31 = getelementptr inbounds nuw %"class.gmx::internal::AnalysisDataHandleImpl", ptr %30, i32 0, i32 1
  %32 = load ptr, ptr %31, align 8, !tbaa !93
  %33 = load i32, ptr %7, align 4, !tbaa !9
  %34 = load float, ptr %8, align 4, !tbaa !117
  %35 = load float, ptr %9, align 4, !tbaa !117
  %36 = load i8, ptr %10, align 1, !tbaa !85, !range !87, !noundef !88
  %37 = trunc i8 %36 to i1
  call void @_ZN3gmx24AnalysisDataStorageFrame8setValueEiffb(ptr noundef nonnull align 8 dereferenceable(45) %32, i32 noundef %33, float noundef %34, float noundef %35, i1 noundef zeroext %37)
  ret void
}