; Function Attrs: mustprogress uwtable
define void @_ZN3gmx18AnalysisDataHandle8setPointEiffb(ptr noundef nonnull readonly align 8 captures(none) dereferenceable(8) %0, i32 noundef %1, float noundef %2, float noundef %3, i1 noundef zeroext %4) local_unnamed_addr #1 align 2 {
  %6 = load ptr, ptr %0, align 8, !tbaa !37
  %.not = icmp eq ptr %6, null
  br i1 %.not, label %7, label %8

7:                                                ; preds = %5
  tail call void @_ZN3gmx8internal13assertHandlerEPKcS2_S2_S2_i(ptr noundef nonnull @.str.9, ptr noundef nonnull @.str.10, ptr noundef nonnull @"__PRETTY_FUNCTION__._ZZN3gmx18AnalysisDataHandle8setPointEiffbENK3$_0clEv", ptr noundef nonnull @.str.2, i32 noundef 247) #15
  unreachable

8:                                                ; preds = %5
  %9 = getelementptr inbounds nuw i8, ptr %6, i64 8
  %10 = load ptr, ptr %9, align 8, !tbaa !26
  %.not4 = icmp eq ptr %10, null
  br i1 %.not4, label %11, label %12

11:                                               ; preds = %8
  tail call void @_ZN3gmx8internal13assertHandlerEPKcS2_S2_S2_i(ptr noundef nonnull @.str.13, ptr noundef nonnull @.str.15, ptr noundef nonnull @"__PRETTY_FUNCTION__._ZZN3gmx18AnalysisDataHandle8setPointEiffbENK3$_0clEv", ptr noundef nonnull @.str.2, i32 noundef 249) #15
  unreachable

12:                                               ; preds = %8
  %13 = getelementptr inbounds nuw i8, ptr %10, i64 8
  %14 = getelementptr inbounds nuw i8, ptr %10, i64 36
  %15 = load i32, ptr %14, align 4, !tbaa !40
  %16 = add nsw i32 %15, %1
  %17 = sext i32 %16 to i64
  %18 = load ptr, ptr %13, align 8, !tbaa !49
  %19 = getelementptr inbounds nuw %"class.gmx::AnalysisDataValue", ptr %18, i64 %17
  store float %2, ptr %19, align 8, !tbaa !50
  %20 = getelementptr inbounds nuw i8, ptr %19, i64 4
  store float %3, ptr %20, align 4, !tbaa !57
  %21 = getelementptr inbounds nuw i8, ptr %19, i64 8
  %22 = load i64, ptr %21, align 8, !tbaa !55
  %23 = and i64 %22, -8
  %24 = or disjoint i64 %23, 3
  %25 = or i64 %22, 7
  %storemerge.i.i.i = select i1 %4, i64 %25, i64 %24
  store i64 %storemerge.i.i.i, ptr %21, align 8, !tbaa !55
  %26 = getelementptr inbounds nuw i8, ptr %10, i64 44
  store i8 1, ptr %26, align 4, !tbaa !56
  ret void
}